target datalayout = "e-m:e-p270:32:32-p271:32:32-p272:64:64-i64:64-i128:128-f80:128-n8:16:32:64-S128"
target triple = "x86_64-pc-linux-gnu"

@.str = private unnamed_addr constant [4 x i8] c"low\00", align 1
@.str.1 = private unnamed_addr constant [7 x i8] c"medium\00", align 1
@.str.2 = private unnamed_addr constant [5 x i8] c"high\00", align 1
@.str.3 = private unnamed_addr constant [7 x i8] c"highm1\00", align 1
@.str.4 = private unnamed_addr constant [3 x i8] c"%u\00", align 1

; Function Attrs: nounwind uwtable
define dso_local ptr @gpu_common_freq_value_to_string(i32 noundef %0) #0 {
  %2 = alloca ptr, align 8
  %3 = alloca i32, align 4
  store i32 %0, ptr %3, align 4
  %4 = load i32, ptr %3, align 4
  switch i32 %4, label %13 [
    i32 -1, label %5
    i32 -2, label %7
    i32 -4, label %9
    i32 -3, label %11
  ]

5:                                                ; preds = %1
  %6 = call ptr @slurm_xstrdup(ptr noundef @.str)
  store ptr %6, ptr %2, align 8
  br label %16

7:                                                ; preds = %1
  %8 = call ptr @slurm_xstrdup(ptr noundef @.str.1)
  store ptr %8, ptr %2, align 8
  br label %16

9:                                                ; preds = %1
  %10 = call ptr @slurm_xstrdup(ptr noundef @.str.2)
  store ptr %10, ptr %2, align 8
  br label %16

11:                                               ; preds = %1
  %12 = call ptr @slurm_xstrdup(ptr noundef @.str.3)
  store ptr %12, ptr %2, align 8
  br label %16

13:                                               ; preds = %1
  %14 = load i32, ptr %3, align 4
  %15 = call ptr (ptr, ...) @slurm_xstrdup_printf(ptr noundef @.str.4, i32 noundef %14)
  store ptr %15, ptr %2, align 8
  br label %16

16:                                               ; preds = %13, %11, %9, %7, %5
  %17 = load ptr, ptr %2, align 8
  ret ptr %17
}