; Function Attrs: nounwind uwtable
define dso_local ptr @gpu_common_freq_value_to_string(i32 noundef %0) local_unnamed_addr #0 {
  switch i32 %0, label %10 [
    i32 -1, label %2
    i32 -2, label %4
    i32 -4, label %6
    i32 -3, label %8
  ]

2:                                                ; preds = %1
  %3 = tail call ptr @slurm_xstrdup(ptr noundef nonnull @.str) #7
  br label %12

4:                                                ; preds = %1
  %5 = tail call ptr @slurm_xstrdup(ptr noundef nonnull @.str.1) #7
  br label %12

6:                                                ; preds = %1
  %7 = tail call ptr @slurm_xstrdup(ptr noundef nonnull @.str.2) #7
  br label %12

8:                                                ; preds = %1
  %9 = tail call ptr @slurm_xstrdup(ptr noundef nonnull @.str.3) #7
  br label %12

10:                                               ; preds = %1
  %11 = tail call ptr (ptr, ...) @slurm_xstrdup_printf(ptr noundef nonnull @.str.4, i32 noundef %0) #7
  br label %12

12:                                               ; preds = %10, %8, %6, %4, %2
  %.0 = phi ptr [ %11, %10 ], [ %9, %8 ], [ %7, %6 ], [ %5, %4 ], [ %3, %2 ]
  ret ptr %.0
}